---
triple:          'arm64-apple-darwin'
binary-path:     '/Users/dfimiani/Develop/image-campus/Fundamentos de Programacion/Clase11/program'
relocations:
  - { offsetInCU: 0x2DB1, offset: 0x2DB1, size: 0x8, addend: 0x0, symName: __ZNSt3__124__put_character_sequenceB8ue170006IcNS_11char_traitsIcEEEERNS_13basic_ostreamIT_T0_EES7_PKS4_m, symObjAddr: 0x1974, symBinAddr: 0x1000025D4, symSize: 0x1F4 }
  - { offsetInCU: 0x48AD, offset: 0x48AD, size: 0x8, addend: 0x0, symName: __ZNSt3__1lsB8ue170006INS_11char_traitsIcEEEERNS_13basic_ostreamIcT_EES6_PKc, symObjAddr: 0x185C, symBinAddr: 0x1000024BC, symSize: 0x48 }
  - { offsetInCU: 0x48F3, offset: 0x48F3, size: 0x8, addend: 0x0, symName: __ZNSt3__1lsB8ue170006IcNS_11char_traitsIcEENS_9allocatorIcEEEERNS_13basic_ostreamIT_T0_EES9_RKNS_12basic_stringIS6_S7_T1_EE, symObjAddr: 0x18A4, symBinAddr: 0x100002504, symSize: 0x4C }
  - { offsetInCU: 0x494B, offset: 0x494B, size: 0x8, addend: 0x0, symName: __ZNSt3__14endlB8ue170006IcNS_11char_traitsIcEEEERNS_13basic_ostreamIT_T0_EES7_, symObjAddr: 0x191C, symBinAddr: 0x10000257C, symSize: 0x58 }
  - { offsetInCU: 0x498B, offset: 0x498B, size: 0x8, addend: 0x0, symName: __ZNSt3__116__pad_and_outputB8ue170006IcNS_11char_traitsIcEEEENS_19ostreambuf_iteratorIT_T0_EES6_PKS4_S8_S8_RNS_8ios_baseES4_, symObjAddr: 0x1BCC, symBinAddr: 0x10000282C, symSize: 0x248 }
  - { offsetInCU: 0x4A5A, offset: 0x4A5A, size: 0x8, addend: 0x0, symName: __ZNSt3__112__to_addressB8ue170006IKcEEPT_S3_, symObjAddr: 0x213C, symBinAddr: 0x100002D9C, symSize: 0x14 }
  - { offsetInCU: 0x4A8F, offset: 0x4A8F, size: 0x8, addend: 0x0, symName: __ZNSt3__130__libcpp_is_constant_evaluatedB8ue170006Ev, symObjAddr: 0x2268, symBinAddr: 0x100002EC8, symSize: 0xC }
  - { offsetInCU: 0x4ADF, offset: 0x4ADF, size: 0x8, addend: 0x0, symName: __ZNSt3__19use_facetB8ue170006INS_5ctypeIcEEEERKT_RKNS_6localeE, symObjAddr: 0x2420, symBinAddr: 0x100003080, symSize: 0x2C }
  - { offsetInCU: 0x4FAC, offset: 0x4FAC, size: 0x8, addend: 0x0, symName: __ZNSt3__118__constexpr_strlenB8ue170006EPKc, symObjAddr: 0x24B8, symBinAddr: 0x100003118, symSize: 0x24 }
  - { offsetInCU: 0x4FD8, offset: 0x4FD8, size: 0x8, addend: 0x0, symName: __ZNSt3__1eqB8ue170006INS_9allocatorIcEEEEbRKNS_12basic_stringIcNS_11char_traitsIcEET_EES9_, symObjAddr: 0x285C, symBinAddr: 0x1000034BC, symSize: 0x148 }
  - { offsetInCU: 0x53F0, offset: 0x53F0, size: 0x8, addend: 0x0, symName: __Z3powB8ue170006IiiENSt3__19enable_ifIXaasr3std13is_arithmeticIT_EE5valuesr3std13is_arithmeticIT0_EE5valueENS0_9__promoteIS2_S3_vEEE4type4typeES2_S3_, symObjAddr: 0x2A6C, symBinAddr: 0x1000036CC, symSize: 0x44 }
  - { offsetInCU: 0x766E, offset: 0x766E, size: 0x8, addend: 0x0, symName: _main, symObjAddr: 0x0, symBinAddr: 0x100000C60, symSize: 0x4DC }
  - { offsetInCU: 0x76F5, offset: 0x76F5, size: 0x8, addend: 0x0, symName: __ZNSt3__112basic_stringIcNS_11char_traitsIcEENS_9allocatorIcEEEC1B8ue170006ILi0EEEPKc, symObjAddr: 0x4DC, symBinAddr: 0x10000113C, symSize: 0x34 }
  - { offsetInCU: 0x777F, offset: 0x777F, size: 0x8, addend: 0x0, symName: __ZN4CamaC1ENSt3__112basic_stringIcNS0_11char_traitsIcEENS0_9allocatorIcEEEES6_, symObjAddr: 0x510, symBinAddr: 0x100001170, symSize: 0x3C }
  - { offsetInCU: 0x7812, offset: 0x7812, size: 0x8, addend: 0x0, symName: __ZN4MesaC1ENSt3__112basic_stringIcNS0_11char_traitsIcEENS0_9allocatorIcEEEEi, symObjAddr: 0x558, symBinAddr: 0x1000011B8, symSize: 0x3C }
  - { offsetInCU: 0x78A4, offset: 0x78A4, size: 0x8, addend: 0x0, symName: __ZN7LamparaC1ENSt3__112basic_stringIcNS0_11char_traitsIcEENS0_9allocatorIcEEEEi, symObjAddr: 0x594, symBinAddr: 0x1000011F4, symSize: 0x3C }
  - { offsetInCU: 0x795A, offset: 0x795A, size: 0x8, addend: 0x0, symName: __ZN7PokemonC1ENSt3__112basic_stringIcNS0_11char_traitsIcEENS0_9allocatorIcEEEES6_ii, symObjAddr: 0x5D0, symBinAddr: 0x100001230, symSize: 0x4C }
  - { offsetInCU: 0x7A5F, offset: 0x7A5F, size: 0x8, addend: 0x0, symName: __ZN9PersonajeC1ENSt3__112basic_stringIcNS0_11char_traitsIcEENS0_9allocatorIcEEEEii, symObjAddr: 0x61C, symBinAddr: 0x10000127C, symSize: 0x44 }
  - { offsetInCU: 0x7AB2, offset: 0x7AB2, size: 0x8, addend: 0x0, symName: __ZN9Personaje15mostrarPosicionEv, symObjAddr: 0x660, symBinAddr: 0x1000012C0, symSize: 0x78 }
  - { offsetInCU: 0x7AD6, offset: 0x7AD6, size: 0x8, addend: 0x0, symName: __ZN9Personaje5moverEii, symObjAddr: 0x6D8, symBinAddr: 0x100001338, symSize: 0x90 }
  - { offsetInCU: 0x7B16, offset: 0x7B16, size: 0x8, addend: 0x0, symName: __Z10ejercicio4v, symObjAddr: 0x768, symBinAddr: 0x1000013C8, symSize: 0xA40 }
  - { offsetInCU: 0x7BD7, offset: 0x7BD7, size: 0x8, addend: 0x0, symName: __ZN9PersonajeD1Ev, symObjAddr: 0x11A8, symBinAddr: 0x100001E08, symSize: 0x2C }
  - { offsetInCU: 0x7C01, offset: 0x7C01, size: 0x8, addend: 0x0, symName: __ZN7PokemonD1Ev, symObjAddr: 0x11D4, symBinAddr: 0x100001E34, symSize: 0x2C }
  - { offsetInCU: 0x7C2B, offset: 0x7C2B, size: 0x8, addend: 0x0, symName: __ZN7LamparaD1Ev, symObjAddr: 0x1200, symBinAddr: 0x100001E60, symSize: 0x2C }
  - { offsetInCU: 0x7C55, offset: 0x7C55, size: 0x8, addend: 0x0, symName: __ZN4MesaD1Ev, symObjAddr: 0x122C, symBinAddr: 0x100001E8C, symSize: 0x2C }
  - { offsetInCU: 0x7C7F, offset: 0x7C7F, size: 0x8, addend: 0x0, symName: __ZN4CamaD1Ev, symObjAddr: 0x1258, symBinAddr: 0x100001EB8, symSize: 0x2C }
  - { offsetInCU: 0x7D1E, offset: 0x7D1E, size: 0x8, addend: 0x0, symName: __ZN7CountryC1ENSt3__112basic_stringIcNS0_11char_traitsIcEENS0_9allocatorIcEEEEii, symObjAddr: 0x1284, symBinAddr: 0x100001EE4, symSize: 0x44 }
  - { offsetInCU: 0x7D71, offset: 0x7D71, size: 0x8, addend: 0x0, symName: __ZN7CountryD1Ev, symObjAddr: 0x12C8, symBinAddr: 0x100001F28, symSize: 0x2C }
  - { offsetInCU: 0x7E7D, offset: 0x7E7D, size: 0x8, addend: 0x0, symName: __ZN8AirplaneC1ENSt3__112basic_stringIcNS0_11char_traitsIcEENS0_9allocatorIcEEEEdS6_i, symObjAddr: 0x12F4, symBinAddr: 0x100001F54, symSize: 0x4C }
  - { offsetInCU: 0x7EDF, offset: 0x7EDF, size: 0x8, addend: 0x0, symName: __ZN8AirplaneD1Ev, symObjAddr: 0x1340, symBinAddr: 0x100001FA0, symSize: 0x2C }
  - { offsetInCU: 0x7F09, offset: 0x7F09, size: 0x8, addend: 0x0, symName: __ZN8Airplane3flyER7CountryS1_, symObjAddr: 0x136C, symBinAddr: 0x100001FCC, symSize: 0x228 }
  - { offsetInCU: 0x7F73, offset: 0x7F73, size: 0x8, addend: 0x0, symName: __ZN8Airplane11mostrarInfoEv, symObjAddr: 0x1594, symBinAddr: 0x1000021F4, symSize: 0xE8 }
  - { offsetInCU: 0x7F97, offset: 0x7F97, size: 0x8, addend: 0x0, symName: __ZN4CamaC2ENSt3__112basic_stringIcNS0_11char_traitsIcEENS0_9allocatorIcEEEES6_, symObjAddr: 0x167C, symBinAddr: 0x1000022DC, symSize: 0x7C }
  - { offsetInCU: 0x7FDD, offset: 0x7FDD, size: 0x8, addend: 0x0, symName: __ZN4MesaC2ENSt3__112basic_stringIcNS0_11char_traitsIcEENS0_9allocatorIcEEEEi, symObjAddr: 0x16F8, symBinAddr: 0x100002358, symSize: 0x40 }
  - { offsetInCU: 0x8022, offset: 0x8022, size: 0x8, addend: 0x0, symName: __ZN7LamparaC2ENSt3__112basic_stringIcNS0_11char_traitsIcEENS0_9allocatorIcEEEEi, symObjAddr: 0x1738, symBinAddr: 0x100002398, symSize: 0x40 }
  - { offsetInCU: 0x8067, offset: 0x8067, size: 0x8, addend: 0x0, symName: __ZN7PokemonC2ENSt3__112basic_stringIcNS0_11char_traitsIcEENS0_9allocatorIcEEEES6_ii, symObjAddr: 0x1778, symBinAddr: 0x1000023D8, symSize: 0x94 }
  - { offsetInCU: 0x80C9, offset: 0x80C9, size: 0x8, addend: 0x0, symName: __ZN9PersonajeC2ENSt3__112basic_stringIcNS0_11char_traitsIcEENS0_9allocatorIcEEEEii, symObjAddr: 0x180C, symBinAddr: 0x10000246C, symSize: 0x50 }
  - { offsetInCU: 0x811C, offset: 0x811C, size: 0x8, addend: 0x0, symName: __ZNSt3__113basic_ostreamIcNS_11char_traitsIcEEElsB8ue170006EPFRS3_S4_E, symObjAddr: 0x18F0, symBinAddr: 0x100002550, symSize: 0x2C }
  - { offsetInCU: 0x814E, offset: 0x814E, size: 0x8, addend: 0x0, symName: __ZNSt3__111char_traitsIcE6lengthB8ue170006EPKc, symObjAddr: 0x1B68, symBinAddr: 0x1000027C8, symSize: 0x48 }
  - { offsetInCU: 0x818E, offset: 0x818E, size: 0x8, addend: 0x0, symName: __ZNKSt3__113basic_ostreamIcNS_11char_traitsIcEEE6sentrycvbB8ue170006Ev, symObjAddr: 0x1BB0, symBinAddr: 0x100002810, symSize: 0x1C }
  - { offsetInCU: 0x81B2, offset: 0x81B2, size: 0x8, addend: 0x0, symName: __ZNSt3__119ostreambuf_iteratorIcNS_11char_traitsIcEEEC1B8ue170006ERNS_13basic_ostreamIcS2_EE, symObjAddr: 0x1E14, symBinAddr: 0x100002A74, symSize: 0x34 }
  - { offsetInCU: 0x81E9, offset: 0x81E9, size: 0x8, addend: 0x0, symName: __ZNKSt3__18ios_base5flagsB8ue170006Ev, symObjAddr: 0x1E48, symBinAddr: 0x100002AA8, symSize: 0x18 }
  - { offsetInCU: 0x820F, offset: 0x820F, size: 0x8, addend: 0x0, symName: __ZNKSt3__19basic_iosIcNS_11char_traitsIcEEE4fillB8ue170006Ev, symObjAddr: 0x1E60, symBinAddr: 0x100002AC0, symSize: 0x64 }
  - { offsetInCU: 0x8235, offset: 0x8235, size: 0x8, addend: 0x0, symName: __ZNKSt3__119ostreambuf_iteratorIcNS_11char_traitsIcEEE6failedB8ue170006Ev, symObjAddr: 0x1EC4, symBinAddr: 0x100002B24, symSize: 0x24 }
  - { offsetInCU: 0x8259, offset: 0x8259, size: 0x8, addend: 0x0, symName: __ZNSt3__19basic_iosIcNS_11char_traitsIcEEE8setstateB8ue170006Ej, symObjAddr: 0x1EE8, symBinAddr: 0x100002B48, symSize: 0x2C }
  - { offsetInCU: 0x828D, offset: 0x828D, size: 0x8, addend: 0x0, symName: __ZNKSt3__18ios_base5widthB8ue170006Ev, symObjAddr: 0x1F14, symBinAddr: 0x100002B74, symSize: 0x18 }
  - { offsetInCU: 0x82B2, offset: 0x82B2, size: 0x8, addend: 0x0, symName: __ZNSt3__115basic_streambufIcNS_11char_traitsIcEEE5sputnB8ue170006EPKcl, symObjAddr: 0x1F2C, symBinAddr: 0x100002B8C, symSize: 0x3C }
  - { offsetInCU: 0x82F2, offset: 0x82F2, size: 0x8, addend: 0x0, symName: __ZNSt3__112basic_stringIcNS_11char_traitsIcEENS_9allocatorIcEEEC1B8ue170006Emc, symObjAddr: 0x1F68, symBinAddr: 0x100002BC8, symSize: 0x3C }
  - { offsetInCU: 0x8338, offset: 0x8338, size: 0x8, addend: 0x0, symName: __ZNKSt3__112basic_stringIcNS_11char_traitsIcEENS_9allocatorIcEEE4dataB8ue170006Ev, symObjAddr: 0x1FA4, symBinAddr: 0x100002C04, symSize: 0x28 }
  - { offsetInCU: 0x835D, offset: 0x835D, size: 0x8, addend: 0x0, symName: __ZNSt3__18ios_base5widthB8ue170006El, symObjAddr: 0x1FCC, symBinAddr: 0x100002C2C, symSize: 0x2C }
  - { offsetInCU: 0x83A0, offset: 0x83A0, size: 0x8, addend: 0x0, symName: __ZNSt3__112basic_stringIcNS_11char_traitsIcEENS_9allocatorIcEEEC2B8ue170006Emc, symObjAddr: 0x1FF8, symBinAddr: 0x100002C58, symSize: 0x4C }
  - { offsetInCU: 0x83EB, offset: 0x83EB, size: 0x8, addend: 0x0, symName: __ZNSt3__117__compressed_pairINS_12basic_stringIcNS_11char_traitsIcEENS_9allocatorIcEEE5__repES5_EC1B8ue170006INS_18__default_init_tagESA_EEOT_OT0_, symObjAddr: 0x2044, symBinAddr: 0x100002CA4, symSize: 0x3C }
  - { offsetInCU: 0x8441, offset: 0x8441, size: 0x8, addend: 0x0, symName: __ZNSt3__117__compressed_pairINS_12basic_stringIcNS_11char_traitsIcEENS_9allocatorIcEEE5__repES5_EC2B8ue170006INS_18__default_init_tagESA_EEOT_OT0_, symObjAddr: 0x2080, symBinAddr: 0x100002CE0, symSize: 0x3C }
  - { offsetInCU: 0x8498, offset: 0x8498, size: 0x8, addend: 0x0, symName: __ZNSt3__122__compressed_pair_elemINS_12basic_stringIcNS_11char_traitsIcEENS_9allocatorIcEEE5__repELi0ELb0EEC2B8ue170006ENS_18__default_init_tagE, symObjAddr: 0x20BC, symBinAddr: 0x100002D1C, symSize: 0x14 }
  - { offsetInCU: 0x84CB, offset: 0x84CB, size: 0x8, addend: 0x0, symName: __ZNSt3__122__compressed_pair_elemINS_9allocatorIcEELi1ELb1EEC2B8ue170006ENS_18__default_init_tagE, symObjAddr: 0x20D0, symBinAddr: 0x100002D30, symSize: 0x2C }
  - { offsetInCU: 0x84FE, offset: 0x84FE, size: 0x8, addend: 0x0, symName: __ZNSt3__19allocatorIcEC2B8ue170006Ev, symObjAddr: 0x20FC, symBinAddr: 0x100002D5C, symSize: 0x2C }
  - { offsetInCU: 0x8527, offset: 0x8527, size: 0x8, addend: 0x0, symName: __ZNSt3__116__non_trivial_ifILb1ENS_9allocatorIcEEEC2B8ue170006Ev, symObjAddr: 0x2128, symBinAddr: 0x100002D88, symSize: 0x14 }
  - { offsetInCU: 0x854F, offset: 0x854F, size: 0x8, addend: 0x0, symName: __ZNKSt3__112basic_stringIcNS_11char_traitsIcEENS_9allocatorIcEEE13__get_pointerB8ue170006Ev, symObjAddr: 0x2150, symBinAddr: 0x100002DB0, symSize: 0x54 }
  - { offsetInCU: 0x8573, offset: 0x8573, size: 0x8, addend: 0x0, symName: __ZNKSt3__112basic_stringIcNS_11char_traitsIcEENS_9allocatorIcEEE9__is_longB8ue170006Ev, symObjAddr: 0x21A4, symBinAddr: 0x100002E04, symSize: 0x74 }
  - { offsetInCU: 0x8597, offset: 0x8597, size: 0x8, addend: 0x0, symName: __ZNKSt3__112basic_stringIcNS_11char_traitsIcEENS_9allocatorIcEEE18__get_long_pointerB8ue170006Ev, symObjAddr: 0x2218, symBinAddr: 0x100002E78, symSize: 0x28 }
  - { offsetInCU: 0x85BB, offset: 0x85BB, size: 0x8, addend: 0x0, symName: __ZNKSt3__112basic_stringIcNS_11char_traitsIcEENS_9allocatorIcEEE19__get_short_pointerB8ue170006Ev, symObjAddr: 0x2240, symBinAddr: 0x100002EA0, symSize: 0x28 }
  - { offsetInCU: 0x85DF, offset: 0x85DF, size: 0x8, addend: 0x0, symName: __ZNKSt3__117__compressed_pairINS_12basic_stringIcNS_11char_traitsIcEENS_9allocatorIcEEE5__repES5_E5firstB8ue170006Ev, symObjAddr: 0x2274, symBinAddr: 0x100002ED4, symSize: 0x24 }
  - { offsetInCU: 0x8603, offset: 0x8603, size: 0x8, addend: 0x0, symName: __ZNKSt3__122__compressed_pair_elemINS_12basic_stringIcNS_11char_traitsIcEENS_9allocatorIcEEE5__repELi0ELb0EE5__getB8ue170006Ev, symObjAddr: 0x2298, symBinAddr: 0x100002EF8, symSize: 0x14 }
  - { offsetInCU: 0x8628, offset: 0x8628, size: 0x8, addend: 0x0, symName: __ZNSt3__114pointer_traitsIPKcE10pointer_toB8ue170006ERS1_, symObjAddr: 0x22AC, symBinAddr: 0x100002F0C, symSize: 0x14 }
  - { offsetInCU: 0x864A, offset: 0x864A, size: 0x8, addend: 0x0, symName: __ZNSt3__119ostreambuf_iteratorIcNS_11char_traitsIcEEEC2B8ue170006ERNS_13basic_ostreamIcS2_EE, symObjAddr: 0x22C0, symBinAddr: 0x100002F20, symSize: 0x68 }
  - { offsetInCU: 0x8681, offset: 0x8681, size: 0x8, addend: 0x0, symName: __ZNKSt3__19basic_iosIcNS_11char_traitsIcEEE5rdbufB8ue170006Ev, symObjAddr: 0x2328, symBinAddr: 0x100002F88, symSize: 0x24 }
  - { offsetInCU: 0x86A7, offset: 0x86A7, size: 0x8, addend: 0x0, symName: __ZNKSt3__18ios_base5rdbufB8ue170006Ev, symObjAddr: 0x234C, symBinAddr: 0x100002FAC, symSize: 0x18 }
  - { offsetInCU: 0x86CC, offset: 0x86CC, size: 0x8, addend: 0x0, symName: __ZNSt3__111char_traitsIcE11eq_int_typeB8ue170006Eii, symObjAddr: 0x2364, symBinAddr: 0x100002FC4, symSize: 0x28 }
  - { offsetInCU: 0x86FF, offset: 0x86FF, size: 0x8, addend: 0x0, symName: __ZNSt3__111char_traitsIcE3eofB8ue170006Ev, symObjAddr: 0x238C, symBinAddr: 0x100002FEC, symSize: 0x8 }
  - { offsetInCU: 0x8713, offset: 0x8713, size: 0x8, addend: 0x0, symName: __ZNKSt3__19basic_iosIcNS_11char_traitsIcEEE5widenB8ue170006Ec, symObjAddr: 0x2394, symBinAddr: 0x100002FF4, symSize: 0x8C }
  - { offsetInCU: 0x877F, offset: 0x877F, size: 0x8, addend: 0x0, symName: __ZNKSt3__15ctypeIcE5widenB8ue170006Ec, symObjAddr: 0x244C, symBinAddr: 0x1000030AC, symSize: 0x38 }
  - { offsetInCU: 0x87B3, offset: 0x87B3, size: 0x8, addend: 0x0, symName: __ZNSt3__18ios_base8setstateB8ue170006Ej, symObjAddr: 0x2484, symBinAddr: 0x1000030E4, symSize: 0x34 }
  - { offsetInCU: 0x87E8, offset: 0x87E8, size: 0x8, addend: 0x0, symName: __ZNKSt3__112basic_stringIcNS_11char_traitsIcEENS_9allocatorIcEEE4sizeB8ue170006Ev, symObjAddr: 0x24DC, symBinAddr: 0x10000313C, symSize: 0x54 }
  - { offsetInCU: 0x880C, offset: 0x880C, size: 0x8, addend: 0x0, symName: __ZNKSt3__112basic_stringIcNS_11char_traitsIcEENS_9allocatorIcEEE15__get_long_sizeB8ue170006Ev, symObjAddr: 0x2530, symBinAddr: 0x100003190, symSize: 0x28 }
  - { offsetInCU: 0x8830, offset: 0x8830, size: 0x8, addend: 0x0, symName: __ZNKSt3__112basic_stringIcNS_11char_traitsIcEENS_9allocatorIcEEE16__get_short_sizeB8ue170006Ev, symObjAddr: 0x2558, symBinAddr: 0x1000031B8, symSize: 0x34 }
  - { offsetInCU: 0x8854, offset: 0x8854, size: 0x8, addend: 0x0, symName: __ZN9PersonajeD2Ev, symObjAddr: 0x258C, symBinAddr: 0x1000031EC, symSize: 0x2C }
  - { offsetInCU: 0x887E, offset: 0x887E, size: 0x8, addend: 0x0, symName: __ZN7PokemonD2Ev, symObjAddr: 0x25B8, symBinAddr: 0x100003218, symSize: 0x68 }
  - { offsetInCU: 0x88A8, offset: 0x88A8, size: 0x8, addend: 0x0, symName: __ZN7LamparaD2Ev, symObjAddr: 0x2620, symBinAddr: 0x100003280, symSize: 0x2C }
  - { offsetInCU: 0x88D2, offset: 0x88D2, size: 0x8, addend: 0x0, symName: __ZN4MesaD2Ev, symObjAddr: 0x264C, symBinAddr: 0x1000032AC, symSize: 0x2C }
  - { offsetInCU: 0x88FC, offset: 0x88FC, size: 0x8, addend: 0x0, symName: __ZN4CamaD2Ev, symObjAddr: 0x2678, symBinAddr: 0x1000032D8, symSize: 0x68 }
  - { offsetInCU: 0x8926, offset: 0x8926, size: 0x8, addend: 0x0, symName: __ZN7CountryC2ENSt3__112basic_stringIcNS0_11char_traitsIcEENS0_9allocatorIcEEEEii, symObjAddr: 0x26E0, symBinAddr: 0x100003340, symSize: 0x4C }
  - { offsetInCU: 0x8979, offset: 0x8979, size: 0x8, addend: 0x0, symName: __ZN7CountryD2Ev, symObjAddr: 0x272C, symBinAddr: 0x10000338C, symSize: 0x2C }
  - { offsetInCU: 0x89A3, offset: 0x89A3, size: 0x8, addend: 0x0, symName: __ZN8AirplaneC2ENSt3__112basic_stringIcNS0_11char_traitsIcEENS0_9allocatorIcEEEEdS6_i, symObjAddr: 0x2758, symBinAddr: 0x1000033B8, symSize: 0x9C }
  - { offsetInCU: 0x8A05, offset: 0x8A05, size: 0x8, addend: 0x0, symName: __ZN8AirplaneD2Ev, symObjAddr: 0x27F4, symBinAddr: 0x100003454, symSize: 0x68 }
  - { offsetInCU: 0x8A2F, offset: 0x8A2F, size: 0x8, addend: 0x0, symName: __ZN8Airplane17calcularDistanciaEN7Country8PosicionES1_, symObjAddr: 0x29A4, symBinAddr: 0x100003604, symSize: 0x64 }
  - { offsetInCU: 0x8A6F, offset: 0x8A6F, size: 0x8, addend: 0x0, symName: __ZNSt3__111char_traitsIcE7compareB8ue170006EPKcS3_m, symObjAddr: 0x2A08, symBinAddr: 0x100003668, symSize: 0x64 }
  - { offsetInCU: 0x8AAD, offset: 0x8AAD, size: 0x8, addend: 0x0, symName: __ZNSt3__112basic_stringIcNS_11char_traitsIcEENS_9allocatorIcEEEC2B8ue170006ILi0EEEPKc, symObjAddr: 0x2AB0, symBinAddr: 0x100003710, symSize: 0x58 }
...
